target datalayout = "e-m:e-p270:32:32-p271:32:32-p272:64:64-i64:64-i128:128-f80:128-n8:16:32:64-S128"
target triple = "x86_64-pc-linux-gnu"

%struct.PJconsts = type { ptr, ptr, ptr, ptr, ptr, ptr, ptr, ptr, ptr, ptr, ptr, ptr, i32, ptr, ptr, ptr, ptr, ptr, ptr, ptr, ptr, double, double, double, double, double, double, double, double, double, double, double, double, double, double, double, double, double, double, double, double, double, double, i32, i32, i32, i32, i32, i32, i32, i32, i32, i32, i32, ptr, ptr, ptr, ptr, ptr, ptr, double, double, double, double, double, double, double, double, double, double, double, i32, [7 x double], i32, ptr, ptr, double, double, i32, [4 x i8], %"class.std::shared_ptr", i8, double, i8, %"class.std::__cxx11::basic_string", %"class.std::__cxx11::basic_string", %"class.std::__cxx11::basic_string", i8, %"class.std::vector", i32, %"class.std::vector.3", i32, i8, i8, i8, ptr }
%"class.std::shared_ptr" = type { %"class.std::__shared_ptr" }
%"class.std::__shared_ptr" = type { ptr, %"class.std::__shared_count" }
%"class.std::__shared_count" = type { ptr }
%"class.std::__cxx11::basic_string" = type { %"struct.std::__cxx11::basic_string<char>::_Alloc_hider", i64, %union.anon }
%"struct.std::__cxx11::basic_string<char>::_Alloc_hider" = type { ptr }
%union.anon = type { i64, [8 x i8] }
%"class.std::vector" = type { %"struct.std::_Vector_base" }
%"struct.std::_Vector_base" = type { %"struct.std::_Vector_base<osgeo::proj::operation::GridDescription, std::allocator<osgeo::proj::operation::GridDescription>>::_Vector_impl" }
%"struct.std::_Vector_base<osgeo::proj::operation::GridDescription, std::allocator<osgeo::proj::operation::GridDescription>>::_Vector_impl" = type { %"struct.std::_Vector_base<osgeo::proj::operation::GridDescription, std::allocator<osgeo::proj::operation::GridDescription>>::_Vector_impl_data" }
%"struct.std::_Vector_base<osgeo::proj::operation::GridDescription, std::allocator<osgeo::proj::operation::GridDescription>>::_Vector_impl_data" = type { ptr, ptr, ptr }
%"class.std::vector.3" = type { %"struct.std::_Vector_base.4" }
%"struct.std::_Vector_base.4" = type { %"struct.std::_Vector_base<PJCoordOperation, std::allocator<PJCoordOperation>>::_Vector_impl" }
%"struct.std::_Vector_base<PJCoordOperation, std::allocator<PJCoordOperation>>::_Vector_impl" = type { %"struct.std::_Vector_base<PJCoordOperation, std::allocator<PJCoordOperation>>::_Vector_impl_data" }
%"struct.std::_Vector_base<PJCoordOperation, std::allocator<PJCoordOperation>>::_Vector_impl_data" = type { ptr, ptr, ptr }
%"struct.(anonymous namespace)::pj_ob_tran_data" = type { ptr, double, double, double }
%struct.PJ_XY = type { double, double }
%struct.PJ_LP = type { double, double }

; Function Attrs: mustprogress uwtable
define internal { double, double } @_ZL9o_forward5PJ_LPP8PJconsts(double %0, double %1, ptr noundef %2) #0 {
  %4 = alloca %struct.PJ_XY, align 8
  %5 = alloca %struct.PJ_LP, align 8
  %6 = alloca ptr, align 8
  %7 = alloca ptr, align 8
  %8 = alloca double, align 8
  %9 = alloca double, align 8
  %10 = alloca double, align 8
  %11 = alloca %struct.PJ_LP, align 8
  %12 = getelementptr inbounds nuw { double, double }, ptr %5, i32 0, i32 0
  store double %0, ptr %12, align 8
  %13 = getelementptr inbounds nuw { double, double }, ptr %5, i32 0, i32 1
  store double %1, ptr %13, align 8
  store ptr %2, ptr %6, align 8, !tbaa !3
  call void @llvm.lifetime.start.p0(i64 8, ptr %7) #10
  %14 = load ptr, ptr %6, align 8, !tbaa !3
  %15 = getelementptr inbounds nuw %struct.PJconsts, ptr %14, i32 0, i32 11
  %16 = load ptr, ptr %15, align 8, !tbaa !43
  store ptr %16, ptr %7, align 8, !tbaa !41
  call void @llvm.lifetime.start.p0(i64 8, ptr %8) #10
  call void @llvm.lifetime.start.p0(i64 8, ptr %9) #10
  call void @llvm.lifetime.start.p0(i64 8, ptr %10) #10
  %17 = getelementptr inbounds nuw %struct.PJ_LP, ptr %5, i32 0, i32 0
  %18 = load double, ptr %17, align 8, !tbaa !72
  %19 = call double @cos(double noundef %18) #10, !tbaa !49
  store double %19, ptr %8, align 8, !tbaa !62
  %20 = getelementptr inbounds nuw %struct.PJ_LP, ptr %5, i32 0, i32 1
  %21 = load double, ptr %20, align 8, !tbaa !74
  %22 = call double @sin(double noundef %21) #10, !tbaa !49
  store double %22, ptr %9, align 8, !tbaa !62
  %23 = getelementptr inbounds nuw %struct.PJ_LP, ptr %5, i32 0, i32 1
  %24 = load double, ptr %23, align 8, !tbaa !74
  %25 = call double @cos(double noundef %24) #10, !tbaa !49
  store double %25, ptr %10, align 8, !tbaa !62
  %26 = load double, ptr %10, align 8, !tbaa !62
  %27 = getelementptr inbounds nuw %struct.PJ_LP, ptr %5, i32 0, i32 0
  %28 = load double, ptr %27, align 8, !tbaa !72
  %29 = call double @sin(double noundef %28) #10, !tbaa !49
  %30 = fmul double %26, %29
  %31 = load ptr, ptr %7, align 8, !tbaa !41
  %32 = getelementptr inbounds nuw %"struct.(anonymous namespace)::pj_ob_tran_data", ptr %31, i32 0, i32 3
  %33 = load double, ptr %32, align 8, !tbaa !65
  %34 = load double, ptr %10, align 8, !tbaa !62
  %35 = fmul double %33, %34
  %36 = load double, ptr %8, align 8, !tbaa !62
  %37 = load ptr, ptr %7, align 8, !tbaa !41
  %38 = getelementptr inbounds nuw %"struct.(anonymous namespace)::pj_ob_tran_data", ptr %37, i32 0, i32 2
  %39 = load double, ptr %38, align 8, !tbaa !64
  %40 = load double, ptr %9, align 8, !tbaa !62
  %41 = fmul double %39, %40
  %42 = call double @llvm.fmuladd.f64(double %35, double %36, double %41)
  %43 = call noundef double @_Z6aatan2dd(double noundef %30, double noundef %42)
  %44 = load ptr, ptr %7, align 8, !tbaa !41
  %45 = getelementptr inbounds nuw %"struct.(anonymous namespace)::pj_ob_tran_data", ptr %44, i32 0, i32 1
  %46 = load double, ptr %45, align 8, !tbaa !63
  %47 = fadd double %43, %46
  %48 = call noundef double @_Z6adjlond(double noundef %47)
  %49 = getelementptr inbounds nuw %struct.PJ_LP, ptr %5, i32 0, i32 0
  store double %48, ptr %49, align 8, !tbaa !72
  %50 = load ptr, ptr %6, align 8, !tbaa !3
  %51 = getelementptr inbounds nuw %struct.PJconsts, ptr %50, i32 0, i32 0
  %52 = load ptr, ptr %51, align 8, !tbaa !45
  %53 = load ptr, ptr %7, align 8, !tbaa !41
  %54 = getelementptr inbounds nuw %"struct.(anonymous namespace)::pj_ob_tran_data", ptr %53, i32 0, i32 3
  %55 = load double, ptr %54, align 8, !tbaa !65
  %56 = load double, ptr %9, align 8, !tbaa !62
  %57 = load ptr, ptr %7, align 8, !tbaa !41
  %58 = getelementptr inbounds nuw %"struct.(anonymous namespace)::pj_ob_tran_data", ptr %57, i32 0, i32 2
  %59 = load double, ptr %58, align 8, !tbaa !64
  %60 = load double, ptr %10, align 8, !tbaa !62
  %61 = fmul double %59, %60
  %62 = load double, ptr %8, align 8, !tbaa !62
  %63 = fmul double %61, %62
  %64 = fneg double %63
  %65 = call double @llvm.fmuladd.f64(double %55, double %56, double %64)
  %66 = call noundef double @_Z5aasinP6pj_ctxd(ptr noundef %52, double noundef %65)
  %67 = getelementptr inbounds nuw %struct.PJ_LP, ptr %5, i32 0, i32 1
  store double %66, ptr %67, align 8, !tbaa !74
  %68 = load ptr, ptr %7, align 8, !tbaa !41
  %69 = getelementptr inbounds nuw %"struct.(anonymous namespace)::pj_ob_tran_data", ptr %68, i32 0, i32 0
  %70 = load ptr, ptr %69, align 8, !tbaa !60
  %71 = getelementptr inbounds nuw %struct.PJconsts, ptr %70, i32 0, i32 13
  %72 = load ptr, ptr %71, align 8, !tbaa !66
  call void @llvm.memcpy.p0.p0.i64(ptr align 8 %11, ptr align 8 %5, i64 16, i1 false), !tbaa.struct !75
  %73 = load ptr, ptr %7, align 8, !tbaa !41
  %74 = getelementptr inbounds nuw %"struct.(anonymous namespace)::pj_ob_tran_data", ptr %73, i32 0, i32 0
  %75 = load ptr, ptr %74, align 8, !tbaa !60
  %76 = getelementptr inbounds nuw { double, double }, ptr %11, i32 0, i32 0
  %77 = load double, ptr %76, align 8
  %78 = getelementptr inbounds nuw { double, double }, ptr %11, i32 0, i32 1
  %79 = load double, ptr %78, align 8
  %80 = call { double, double } %72(double %77, double %79, ptr noundef %75)
  %81 = getelementptr inbounds nuw { double, double }, ptr %4, i32 0, i32 0
  %82 = extractvalue { double, double } %80, 0
  store double %82, ptr %81, align 8
  %83 = getelementptr inbounds nuw { double, double }, ptr %4, i32 0, i32 1
  %84 = extractvalue { double, double } %80, 1
  store double %84, ptr %83, align 8
  call void @llvm.lifetime.end.p0(i64 8, ptr %10) #10
  call void @llvm.lifetime.end.p0(i64 8, ptr %9) #10
  call void @llvm.lifetime.end.p0(i64 8, ptr %8) #10
  call void @llvm.lifetime.end.p0(i64 8, ptr %7) #10
  %85 = load { double, double }, ptr %4, align 8
  ret { double, double } %85
}