; Function Attrs: mustprogress uwtable
define internal { double, double } @_ZL9o_forward5PJ_LPP8PJconsts(double %0, double %1, ptr noundef readonly captures(none) %2) #0 {
  %4 = getelementptr inbounds nuw i8, ptr %2, i64 88
  %5 = load ptr, ptr %4, align 8, !tbaa !40
  %6 = tail call double @cos(double noundef %0) #9, !tbaa !55
  %7 = tail call double @sin(double noundef %1) #9, !tbaa !55
  %8 = tail call double @cos(double noundef %1) #9, !tbaa !55
  %9 = tail call double @sin(double noundef %0) #9, !tbaa !55
  %10 = fmul double %8, %9
  %11 = getelementptr inbounds nuw i8, ptr %5, i64 24
  %12 = load double, ptr %11, align 8, !tbaa !58
  %13 = fmul double %8, %12
  %14 = getelementptr inbounds nuw i8, ptr %5, i64 16
  %15 = load double, ptr %14, align 8, !tbaa !57
  %16 = fmul double %7, %15
  %17 = tail call double @llvm.fmuladd.f64(double %13, double %6, double %16)
  %18 = tail call noundef double @_Z6aatan2dd(double noundef %10, double noundef %17)
  %19 = getelementptr inbounds nuw i8, ptr %5, i64 8
  %20 = load double, ptr %19, align 8, !tbaa !56
  %21 = fadd double %18, %20
  %22 = tail call noundef double @_Z6adjlond(double noundef %21)
  %23 = load ptr, ptr %2, align 8, !tbaa !44
  %24 = load double, ptr %11, align 8, !tbaa !58
  %25 = load double, ptr %14, align 8, !tbaa !57
  %26 = fmul double %8, %25
  %27 = fneg double %6
  %28 = fmul double %26, %27
  %29 = tail call double @llvm.fmuladd.f64(double %24, double %7, double %28)
  %30 = tail call noundef double @_Z5aasinP6pj_ctxd(ptr noundef %23, double noundef %29)
  %31 = load ptr, ptr %5, align 8, !tbaa !41
  %32 = getelementptr inbounds nuw i8, ptr %31, i64 104
  %33 = load ptr, ptr %32, align 8, !tbaa !59
  %34 = tail call { double, double } %33(double %22, double %30, ptr noundef %31)
  ret { double, double } %34
}